; Function Attrs: nofree norecurse nosync nounwind memory(read, inaccessiblemem: none) uwtable
define double @N_VMin_Serial(ptr noundef readonly captures(none) %0) #10 {
  %2 = load ptr, ptr %0, align 8, !tbaa !39
  %3 = load i64, ptr %2, align 8, !tbaa !32
  %4 = getelementptr inbounds nuw i8, ptr %2, i64 16
  %5 = load ptr, ptr %4, align 8, !tbaa !38
  %6 = load double, ptr %5, align 8, !tbaa !44
  %7 = icmp sgt i64 %3, 1
  br i1 %7, label %.lr.ph, label %._crit_edge

.lr.ph:                                           ; preds = %1, %.lr.ph
  %.014 = phi double [ %.1, %.lr.ph ], [ %6, %1 ]
  %.01113 = phi i64 [ %11, %.lr.ph ], [ 1, %1 ]
  %8 = getelementptr inbounds nuw double, ptr %5, i64 %.01113
  %9 = load double, ptr %8, align 8, !tbaa !44
  %10 = fcmp olt double %9, %.014
  %.1 = select i1 %10, double %9, double %.014
  %11 = add nuw nsw i64 %.01113, 1
  %exitcond.not = icmp eq i64 %11, %3
  br i1 %exitcond.not, label %._crit_edge, label %.lr.ph, !llvm.loop !71

._crit_edge:                                      ; preds = %.lr.ph, %1
  %.0.lcssa = phi double [ %6, %1 ], [ %.1, %.lr.ph ]
  ret double %.0.lcssa
}